target datalayout = "e-m:e-p270:32:32-p271:32:32-p272:64:64-i64:64-i128:128-f80:128-n8:16:32:64-S128"
target triple = "x86_64-pc-linux-gnu"

%class.QList.21 = type { %struct.QArrayDataPointer.24 }
%struct.QArrayDataPointer.24 = type { ptr, ptr, i64 }

@_ZTI15QTreeWidgetItem = external constant ptr
@_ZTI21MacULDLTreeWidgetItem = linkonce_odr constant { ptr, ptr, ptr } { ptr getelementptr inbounds (ptr, ptr @_ZTVN10__cxxabiv120__si_class_type_infoE, i64 2), ptr @_ZTS21MacULDLTreeWidgetItem, ptr @_ZTI15QTreeWidgetItem }, comdat, align 8
@_ZTI19MacUETreeWidgetItem = linkonce_odr constant { ptr, ptr, ptr } { ptr getelementptr inbounds (ptr, ptr @_ZTVN10__cxxabiv120__si_class_type_infoE, i64 2), ptr @_ZTS19MacUETreeWidgetItem, ptr @_ZTI15QTreeWidgetItem }, comdat, align 8

; Function Attrs: mustprogress nounwind uwtable
define linkonce_odr void @_ZN17QArrayDataPointerI8QVariantEC2Ev(ptr noundef nonnull align 8 dereferenceable(24) %0) unnamed_addr #2 comdat align 2 {
  %2 = alloca ptr, align 8
  store ptr %0, ptr %2, align 8
  %3 = load ptr, ptr %2, align 8
  %4 = getelementptr inbounds %struct.QArrayDataPointer.24, ptr %3, i32 0, i32 0
  store ptr null, ptr %4, align 8
  %5 = getelementptr inbounds %struct.QArrayDataPointer.24, ptr %3, i32 0, i32 1
  store ptr null, ptr %5, align 8
  %6 = getelementptr inbounds %struct.QArrayDataPointer.24, ptr %3, i32 0, i32 2
  store i64 0, ptr %6, align 8
  ret void
}

; Function Attrs: mustprogress nounwind uwtable
define linkonce_odr void @_ZN5QListI8QVariantEC2Ev(ptr noundef nonnull align 8 dereferenceable(24) %0) unnamed_addr #2 comdat align 2 {
  %2 = alloca ptr, align 8
  store ptr %0, ptr %2, align 8
  %3 = load ptr, ptr %2, align 8
  %4 = getelementptr inbounds %class.QList.21, ptr %3, i32 0, i32 0
  call void @_ZN17QArrayDataPointerI8QVariantEC2Ev(ptr noundef nonnull align 8 dereferenceable(24) %4) #4
  ret void
}

; Function Attrs: mustprogress nounwind uwtable
define linkonce_odr void @_ZNK21MacULDLTreeWidgetItem7rowDataEv(ptr dead_on_unwind noalias writable sret(%class.QList.21) align 8 %0, ptr noundef nonnull align 8 dereferenceable(236) %1) #2 comdat align 2 {
  %3 = alloca ptr, align 8
  %4 = alloca ptr, align 8
  store ptr %0, ptr %3, align 8
  store ptr %1, ptr %4, align 8
  call void @llvm.memset.p0.i64(ptr align 8 %0, i8 0, i64 24, i1 false)
  call void @_ZN5QListI8QVariantEC2Ev(ptr noundef nonnull align 8 dereferenceable(24) %0) #4
  ret void
}

; Function Attrs: mustprogress uwtable
define void @_ZNK22LteMacStatisticsDialog12treeItemDataEP15QTreeWidgetItem(ptr dead_on_unwind noalias writable sret(%class.QList.21) align 8 %0, ptr noundef nonnull align 8 dereferenceable(329) %1, ptr noundef %2) unnamed_addr #3 align 2 {
  %4 = alloca ptr, align 8
  %5 = alloca ptr, align 8
  %6 = alloca ptr, align 8
  %7 = alloca ptr, align 8
  %8 = alloca ptr, align 8
  store ptr %0, ptr %4, align 8
  store ptr %1, ptr %5, align 8
  store ptr %2, ptr %6, align 8
  %9 = load ptr, ptr %6, align 8
  %10 = icmp eq ptr %9, null
  br i1 %10, label %13, label %11

11:                                               ; preds = %3
  %12 = call ptr @__dynamic_cast(ptr %9, ptr @_ZTI15QTreeWidgetItem, ptr @_ZTI21MacULDLTreeWidgetItem, i64 0) #4
  br label %14

13:                                               ; preds = %3
  br label %14

14:                                               ; preds = %13, %11
  %15 = phi ptr [ %12, %11 ], [ null, %13 ]
  store ptr %15, ptr %7, align 8
  %16 = load ptr, ptr %7, align 8
  %17 = icmp ne ptr %16, null
  br i1 %17, label %18, label %20

18:                                               ; preds = %14
  %19 = load ptr, ptr %7, align 8
  call void @_ZNK21MacULDLTreeWidgetItem7rowDataEv(ptr dead_on_unwind writable sret(%class.QList.21) align 8 %0, ptr noundef nonnull align 8 dereferenceable(236) %19)
  br label %33

20:                                               ; preds = %14
  %21 = load ptr, ptr %6, align 8
  %22 = icmp eq ptr %21, null
  br i1 %22, label %25, label %23

23:                                               ; preds = %20
  %24 = call ptr @__dynamic_cast(ptr %21, ptr @_ZTI15QTreeWidgetItem, ptr @_ZTI19MacUETreeWidgetItem, i64 0) #4
  br label %26

25:                                               ; preds = %20
  br label %26

26:                                               ; preds = %25, %23
  %27 = phi ptr [ %24, %23 ], [ null, %25 ]
  store ptr %27, ptr %8, align 8
  %28 = load ptr, ptr %8, align 8
  %29 = icmp ne ptr %28, null
  br i1 %29, label %30, label %32

30:                                               ; preds = %26
  %31 = load ptr, ptr %8, align 8
  call void @_ZNK19MacUETreeWidgetItem7rowDataEv(ptr dead_on_unwind writable sret(%class.QList.21) align 8 %0, ptr noundef nonnull align 8 dereferenceable(256) %31)
  br label %33

32:                                               ; preds = %26
  call void @llvm.memset.p0.i64(ptr align 8 %0, i8 0, i64 24, i1 false)
  call void @_ZN5QListI8QVariantEC2Ev(ptr noundef nonnull align 8 dereferenceable(24) %0) #4
  br label %33

33:                                               ; preds = %32, %30, %18
  ret void
}